target datalayout = "e-m:e-p270:32:32-p271:32:32-p272:64:64-i64:64-i128:128-f80:128-n8:16:32:64-S128"
target triple = "x86_64-pc-linux-gnu"

%"class.zxing::Ref" = type { ptr }

; Function Attrs: mustprogress nounwind uwtable
define linkonce_odr hidden noundef ptr @_ZNK5zxing3RefINS_6qrcode13FinderPatternEEptEv(ptr noundef nonnull align 8 dereferenceable(8) %0) #1 comdat align 2 {
  %2 = alloca ptr, align 8
  store ptr %0, ptr %2, align 8, !tbaa !27
  %3 = load ptr, ptr %2, align 8
  %4 = getelementptr inbounds nuw %"class.zxing::Ref", ptr %3, i32 0, i32 0
  %5 = load ptr, ptr %4, align 8, !tbaa !28
  ret ptr %5
}

; Function Attrs: mustprogress uwtable
define hidden void @_ZN5zxing6qrcode17FinderPatternInfo14calculateSidesENS_3RefINS0_13FinderPatternEEES4_S4_RfS5_S5_(ptr noundef %0, ptr noundef %1, ptr noundef %2, ptr noundef nonnull align 4 dereferenceable(4) %3, ptr noundef nonnull align 4 dereferenceable(4) %4, ptr noundef nonnull align 4 dereferenceable(4) %5) #0 align 2 {
  %7 = alloca ptr, align 8
  %8 = alloca ptr, align 8
  %9 = alloca ptr, align 8
  %10 = alloca ptr, align 8
  %11 = alloca ptr, align 8
  %12 = alloca ptr, align 8
  %13 = alloca float, align 4
  %14 = alloca float, align 4
  %15 = alloca float, align 4
  %16 = alloca float, align 4
  %17 = alloca float, align 4
  %18 = alloca float, align 4
  %19 = alloca float, align 4
  %20 = alloca float, align 4
  %21 = alloca float, align 4
  store ptr %0, ptr %7, align 8, !tbaa !27
  store ptr %1, ptr %8, align 8, !tbaa !27
  store ptr %2, ptr %9, align 8, !tbaa !27
  store ptr %3, ptr %10, align 8, !tbaa !32
  store ptr %4, ptr %11, align 8, !tbaa !32
  store ptr %5, ptr %12, align 8, !tbaa !32
  call void @llvm.lifetime.start.p0(i64 4, ptr %13) #8
  %22 = call noundef ptr @_ZNK5zxing3RefINS_6qrcode13FinderPatternEEptEv(ptr noundef nonnull align 8 dereferenceable(8) %0)
  %23 = load ptr, ptr %22, align 8, !tbaa !10
  %24 = getelementptr inbounds ptr, ptr %23, i64 2
  %25 = load ptr, ptr %24, align 8
  %26 = call noundef float %25(ptr noundef nonnull align 8 dereferenceable(20) %22)
  %27 = call noundef ptr @_ZNK5zxing3RefINS_6qrcode13FinderPatternEEptEv(ptr noundef nonnull align 8 dereferenceable(8) %1)
  %28 = load ptr, ptr %27, align 8, !tbaa !10
  %29 = getelementptr inbounds ptr, ptr %28, i64 2
  %30 = load ptr, ptr %29, align 8
  %31 = call noundef float %30(ptr noundef nonnull align 8 dereferenceable(20) %27)
  %32 = fsub float %26, %31
  store float %32, ptr %13, align 4, !tbaa !29
  call void @llvm.lifetime.start.p0(i64 4, ptr %14) #8
  %33 = call noundef ptr @_ZNK5zxing3RefINS_6qrcode13FinderPatternEEptEv(ptr noundef nonnull align 8 dereferenceable(8) %0)
  %34 = load ptr, ptr %33, align 8, !tbaa !10
  %35 = getelementptr inbounds ptr, ptr %34, i64 3
  %36 = load ptr, ptr %35, align 8
  %37 = call noundef float %36(ptr noundef nonnull align 8 dereferenceable(20) %33)
  %38 = call noundef ptr @_ZNK5zxing3RefINS_6qrcode13FinderPatternEEptEv(ptr noundef nonnull align 8 dereferenceable(8) %1)
  %39 = load ptr, ptr %38, align 8, !tbaa !10
  %40 = getelementptr inbounds ptr, ptr %39, i64 3
  %41 = load ptr, ptr %40, align 8
  %42 = call noundef float %41(ptr noundef nonnull align 8 dereferenceable(20) %38)
  %43 = fsub float %37, %42
  store float %43, ptr %14, align 4, !tbaa !29
  call void @llvm.lifetime.start.p0(i64 4, ptr %15) #8
  %44 = load float, ptr %13, align 4, !tbaa !29
  %45 = load float, ptr %13, align 4, !tbaa !29
  %46 = load float, ptr %14, align 4, !tbaa !29
  %47 = load float, ptr %14, align 4, !tbaa !29
  %48 = fmul float %46, %47
  %49 = call float @llvm.fmuladd.f32(float %44, float %45, float %48)
  store float %49, ptr %15, align 4, !tbaa !29
  call void @llvm.lifetime.start.p0(i64 4, ptr %16) #8
  %50 = call noundef ptr @_ZNK5zxing3RefINS_6qrcode13FinderPatternEEptEv(ptr noundef nonnull align 8 dereferenceable(8) %0)
  %51 = load ptr, ptr %50, align 8, !tbaa !10
  %52 = getelementptr inbounds ptr, ptr %51, i64 2
  %53 = load ptr, ptr %52, align 8
  %54 = call noundef float %53(ptr noundef nonnull align 8 dereferenceable(20) %50)
  %55 = call noundef ptr @_ZNK5zxing3RefINS_6qrcode13FinderPatternEEptEv(ptr noundef nonnull align 8 dereferenceable(8) %2)
  %56 = load ptr, ptr %55, align 8, !tbaa !10
  %57 = getelementptr inbounds ptr, ptr %56, i64 2
  %58 = load ptr, ptr %57, align 8
  %59 = call noundef float %58(ptr noundef nonnull align 8 dereferenceable(20) %55)
  %60 = fsub float %54, %59
  store float %60, ptr %16, align 4, !tbaa !29
  call void @llvm.lifetime.start.p0(i64 4, ptr %17) #8
  %61 = call noundef ptr @_ZNK5zxing3RefINS_6qrcode13FinderPatternEEptEv(ptr noundef nonnull align 8 dereferenceable(8) %0)
  %62 = load ptr, ptr %61, align 8, !tbaa !10
  %63 = getelementptr inbounds ptr, ptr %62, i64 3
  %64 = load ptr, ptr %63, align 8
  %65 = call noundef float %64(ptr noundef nonnull align 8 dereferenceable(20) %61)
  %66 = call noundef ptr @_ZNK5zxing3RefINS_6qrcode13FinderPatternEEptEv(ptr noundef nonnull align 8 dereferenceable(8) %2)
  %67 = load ptr, ptr %66, align 8, !tbaa !10
  %68 = getelementptr inbounds ptr, ptr %67, i64 3
  %69 = load ptr, ptr %68, align 8
  %70 = call noundef float %69(ptr noundef nonnull align 8 dereferenceable(20) %66)
  %71 = fsub float %65, %70
  store float %71, ptr %17, align 4, !tbaa !29
  call void @llvm.lifetime.start.p0(i64 4, ptr %18) #8
  %72 = load float, ptr %16, align 4, !tbaa !29
  %73 = load float, ptr %16, align 4, !tbaa !29
  %74 = load float, ptr %17, align 4, !tbaa !29
  %75 = load float, ptr %17, align 4, !tbaa !29
  %76 = fmul float %74, %75
  %77 = call float @llvm.fmuladd.f32(float %72, float %73, float %76)
  store float %77, ptr %18, align 4, !tbaa !29
  call void @llvm.lifetime.start.p0(i64 4, ptr %19) #8
  %78 = call noundef ptr @_ZNK5zxing3RefINS_6qrcode13FinderPatternEEptEv(ptr noundef nonnull align 8 dereferenceable(8) %1)
  %79 = load ptr, ptr %78, align 8, !tbaa !10
  %80 = getelementptr inbounds ptr, ptr %79, i64 2
  %81 = load ptr, ptr %80, align 8
  %82 = call noundef float %81(ptr noundef nonnull align 8 dereferenceable(20) %78)
  %83 = call noundef ptr @_ZNK5zxing3RefINS_6qrcode13FinderPatternEEptEv(ptr noundef nonnull align 8 dereferenceable(8) %2)
  %84 = load ptr, ptr %83, align 8, !tbaa !10
  %85 = getelementptr inbounds ptr, ptr %84, i64 2
  %86 = load ptr, ptr %85, align 8
  %87 = call noundef float %86(ptr noundef nonnull align 8 dereferenceable(20) %83)
  %88 = fsub float %82, %87
  store float %88, ptr %19, align 4, !tbaa !29
  call void @llvm.lifetime.start.p0(i64 4, ptr %20) #8
  %89 = call noundef ptr @_ZNK5zxing3RefINS_6qrcode13FinderPatternEEptEv(ptr noundef nonnull align 8 dereferenceable(8) %1)
  %90 = load ptr, ptr %89, align 8, !tbaa !10
  %91 = getelementptr inbounds ptr, ptr %90, i64 3
  %92 = load ptr, ptr %91, align 8
  %93 = call noundef float %92(ptr noundef nonnull align 8 dereferenceable(20) %89)
  %94 = call noundef ptr @_ZNK5zxing3RefINS_6qrcode13FinderPatternEEptEv(ptr noundef nonnull align 8 dereferenceable(8) %2)
  %95 = load ptr, ptr %94, align 8, !tbaa !10
  %96 = getelementptr inbounds ptr, ptr %95, i64 3
  %97 = load ptr, ptr %96, align 8
  %98 = call noundef float %97(ptr noundef nonnull align 8 dereferenceable(20) %94)
  %99 = fsub float %93, %98
  store float %99, ptr %20, align 4, !tbaa !29
  call void @llvm.lifetime.start.p0(i64 4, ptr %21) #8
  %100 = load float, ptr %19, align 4, !tbaa !29
  %101 = load float, ptr %19, align 4, !tbaa !29
  %102 = load float, ptr %20, align 4, !tbaa !29
  %103 = load float, ptr %20, align 4, !tbaa !29
  %104 = fmul float %102, %103
  %105 = call float @llvm.fmuladd.f32(float %100, float %101, float %104)
  store float %105, ptr %21, align 4, !tbaa !29
  %106 = load float, ptr %15, align 4, !tbaa !29
  %107 = load float, ptr %21, align 4, !tbaa !29
  %108 = fcmp ogt float %106, %107
  br i1 %108, label %109, label %120

109:                                              ; preds = %6
  %110 = load float, ptr %15, align 4, !tbaa !29
  %111 = load float, ptr %18, align 4, !tbaa !29
  %112 = fcmp ogt float %110, %111
  br i1 %112, label %113, label %120

113:                                              ; preds = %109
  %114 = load float, ptr %15, align 4, !tbaa !29
  %115 = load ptr, ptr %10, align 8, !tbaa !32
  store float %114, ptr %115, align 4, !tbaa !29
  %116 = load float, ptr %18, align 4, !tbaa !29
  %117 = load ptr, ptr %11, align 8, !tbaa !32
  store float %116, ptr %117, align 4, !tbaa !29
  %118 = load float, ptr %21, align 4, !tbaa !29
  %119 = load ptr, ptr %12, align 8, !tbaa !32
  store float %118, ptr %119, align 4, !tbaa !29
  br label %143

120:                                              ; preds = %109, %6
  %121 = load float, ptr %21, align 4, !tbaa !29
  %122 = load float, ptr %15, align 4, !tbaa !29
  %123 = fcmp ogt float %121, %122
  br i1 %123, label %124, label %135

124:                                              ; preds = %120
  %125 = load float, ptr %21, align 4, !tbaa !29
  %126 = load float, ptr %18, align 4, !tbaa !29
  %127 = fcmp ogt float %125, %126
  br i1 %127, label %128, label %135

128:                                              ; preds = %124
  %129 = load float, ptr %21, align 4, !tbaa !29
  %130 = load ptr, ptr %10, align 8, !tbaa !32
  store float %129, ptr %130, align 4, !tbaa !29
  %131 = load float, ptr %15, align 4, !tbaa !29
  %132 = load ptr, ptr %11, align 8, !tbaa !32
  store float %131, ptr %132, align 4, !tbaa !29
  %133 = load float, ptr %18, align 4, !tbaa !29
  %134 = load ptr, ptr %12, align 8, !tbaa !32
  store float %133, ptr %134, align 4, !tbaa !29
  br label %142

135:                                              ; preds = %124, %120
  %136 = load float, ptr %18, align 4, !tbaa !29
  %137 = load ptr, ptr %10, align 8, !tbaa !32
  store float %136, ptr %137, align 4, !tbaa !29
  %138 = load float, ptr %15, align 4, !tbaa !29
  %139 = load ptr, ptr %11, align 8, !tbaa !32
  store float %138, ptr %139, align 4, !tbaa !29
  %140 = load float, ptr %21, align 4, !tbaa !29
  %141 = load ptr, ptr %12, align 8, !tbaa !32
  store float %140, ptr %141, align 4, !tbaa !29
  br label %142

142:                                              ; preds = %135, %128
  br label %143

143:                                              ; preds = %142, %113
  call void @llvm.lifetime.end.p0(i64 4, ptr %21) #8
  call void @llvm.lifetime.end.p0(i64 4, ptr %20) #8
  call void @llvm.lifetime.end.p0(i64 4, ptr %19) #8
  call void @llvm.lifetime.end.p0(i64 4, ptr %18) #8
  call void @llvm.lifetime.end.p0(i64 4, ptr %17) #8
  call void @llvm.lifetime.end.p0(i64 4, ptr %16) #8
  call void @llvm.lifetime.end.p0(i64 4, ptr %15) #8
  call void @llvm.lifetime.end.p0(i64 4, ptr %14) #8
  call void @llvm.lifetime.end.p0(i64 4, ptr %13) #8
  ret void
}