; Function Attrs: mustprogress uwtable
define hidden void @_ZN5zxing6qrcode17FinderPatternInfo14calculateSidesENS_3RefINS0_13FinderPatternEEES4_S4_RfS5_S5_(ptr noundef readonly captures(none) %0, ptr noundef readonly captures(none) %1, ptr noundef readonly captures(none) %2, ptr noundef nonnull writeonly align 4 captures(none) dereferenceable(4) initializes((0, 4)) %3, ptr noundef nonnull writeonly align 4 captures(none) dereferenceable(4) initializes((0, 4)) %4, ptr noundef nonnull writeonly align 4 captures(none) dereferenceable(4) initializes((0, 4)) %5) local_unnamed_addr #0 align 2 {
  %7 = load ptr, ptr %0, align 8, !tbaa !14
  %8 = load ptr, ptr %7, align 8, !tbaa !8
  %9 = getelementptr inbounds nuw i8, ptr %8, i64 16
  %10 = load ptr, ptr %9, align 8
  %11 = tail call noundef float %10(ptr noundef nonnull align 8 dereferenceable(20) %7)
  %12 = load ptr, ptr %1, align 8, !tbaa !14
  %13 = load ptr, ptr %12, align 8, !tbaa !8
  %14 = getelementptr inbounds nuw i8, ptr %13, i64 16
  %15 = load ptr, ptr %14, align 8
  %16 = tail call noundef float %15(ptr noundef nonnull align 8 dereferenceable(20) %12)
  %17 = fsub float %11, %16
  %18 = load ptr, ptr %0, align 8, !tbaa !14
  %19 = load ptr, ptr %18, align 8, !tbaa !8
  %20 = getelementptr inbounds nuw i8, ptr %19, i64 24
  %21 = load ptr, ptr %20, align 8
  %22 = tail call noundef float %21(ptr noundef nonnull align 8 dereferenceable(20) %18)
  %23 = load ptr, ptr %1, align 8, !tbaa !14
  %24 = load ptr, ptr %23, align 8, !tbaa !8
  %25 = getelementptr inbounds nuw i8, ptr %24, i64 24
  %26 = load ptr, ptr %25, align 8
  %27 = tail call noundef float %26(ptr noundef nonnull align 8 dereferenceable(20) %23)
  %28 = fsub float %22, %27
  %29 = fmul float %28, %28
  %30 = tail call float @llvm.fmuladd.f32(float %17, float %17, float %29)
  %31 = load ptr, ptr %0, align 8, !tbaa !14
  %32 = load ptr, ptr %31, align 8, !tbaa !8
  %33 = getelementptr inbounds nuw i8, ptr %32, i64 16
  %34 = load ptr, ptr %33, align 8
  %35 = tail call noundef float %34(ptr noundef nonnull align 8 dereferenceable(20) %31)
  %36 = load ptr, ptr %2, align 8, !tbaa !14
  %37 = load ptr, ptr %36, align 8, !tbaa !8
  %38 = getelementptr inbounds nuw i8, ptr %37, i64 16
  %39 = load ptr, ptr %38, align 8
  %40 = tail call noundef float %39(ptr noundef nonnull align 8 dereferenceable(20) %36)
  %41 = fsub float %35, %40
  %42 = load ptr, ptr %0, align 8, !tbaa !14
  %43 = load ptr, ptr %42, align 8, !tbaa !8
  %44 = getelementptr inbounds nuw i8, ptr %43, i64 24
  %45 = load ptr, ptr %44, align 8
  %46 = tail call noundef float %45(ptr noundef nonnull align 8 dereferenceable(20) %42)
  %47 = load ptr, ptr %2, align 8, !tbaa !14
  %48 = load ptr, ptr %47, align 8, !tbaa !8
  %49 = getelementptr inbounds nuw i8, ptr %48, i64 24
  %50 = load ptr, ptr %49, align 8
  %51 = tail call noundef float %50(ptr noundef nonnull align 8 dereferenceable(20) %47)
  %52 = fsub float %46, %51
  %53 = fmul float %52, %52
  %54 = tail call float @llvm.fmuladd.f32(float %41, float %41, float %53)
  %55 = load ptr, ptr %1, align 8, !tbaa !14
  %56 = load ptr, ptr %55, align 8, !tbaa !8
  %57 = getelementptr inbounds nuw i8, ptr %56, i64 16
  %58 = load ptr, ptr %57, align 8
  %59 = tail call noundef float %58(ptr noundef nonnull align 8 dereferenceable(20) %55)
  %60 = load ptr, ptr %2, align 8, !tbaa !14
  %61 = load ptr, ptr %60, align 8, !tbaa !8
  %62 = getelementptr inbounds nuw i8, ptr %61, i64 16
  %63 = load ptr, ptr %62, align 8
  %64 = tail call noundef float %63(ptr noundef nonnull align 8 dereferenceable(20) %60)
  %65 = fsub float %59, %64
  %66 = load ptr, ptr %1, align 8, !tbaa !14
  %67 = load ptr, ptr %66, align 8, !tbaa !8
  %68 = getelementptr inbounds nuw i8, ptr %67, i64 24
  %69 = load ptr, ptr %68, align 8
  %70 = tail call noundef float %69(ptr noundef nonnull align 8 dereferenceable(20) %66)
  %71 = load ptr, ptr %2, align 8, !tbaa !14
  %72 = load ptr, ptr %71, align 8, !tbaa !8
  %73 = getelementptr inbounds nuw i8, ptr %72, i64 24
  %74 = load ptr, ptr %73, align 8
  %75 = tail call noundef float %74(ptr noundef nonnull align 8 dereferenceable(20) %71)
  %76 = fsub float %70, %75
  %77 = fmul float %76, %76
  %78 = tail call float @llvm.fmuladd.f32(float %65, float %65, float %77)
  %79 = fcmp ogt float %30, %78
  %80 = fcmp ogt float %30, %54
  %or.cond = and i1 %80, %79
  br i1 %or.cond, label %84, label %81

81:                                               ; preds = %6
  %82 = fcmp ogt float %78, %30
  %83 = fcmp ogt float %78, %54
  %or.cond41 = and i1 %82, %83
  %. = select i1 %or.cond41, float %78, float %54
  %.44 = select i1 %or.cond41, float %54, float %78
  br label %84

84:                                               ; preds = %81, %6
  %.sink43 = phi float [ %30, %6 ], [ %., %81 ]
  %.sink42 = phi float [ %54, %6 ], [ %30, %81 ]
  %.sink = phi float [ %78, %6 ], [ %.44, %81 ]
  store float %.sink43, ptr %3, align 4, !tbaa !20
  store float %.sink42, ptr %4, align 4, !tbaa !20
  store float %.sink, ptr %5, align 4, !tbaa !20
  ret void
}